target datalayout = "e-m:e-p270:32:32-p271:32:32-p272:64:64-i64:64-i128:128-f80:128-n8:16:32:64-S128"
target triple = "x86_64-pc-linux-gnu"

%"class.llvm::AnalysisUsage" = type <{ %"class.llvm::SmallVector", %"class.llvm::SmallVector.5", %"class.llvm::SmallVector.5", %"class.llvm::SmallVector.7", i8, [7 x i8] }>
%"class.llvm::SmallVector" = type { %"class.llvm::SmallVectorImpl", %"struct.llvm::SmallVectorStorage" }
%"class.llvm::SmallVectorImpl" = type { %"class.llvm::SmallVectorTemplateBase" }
%"class.llvm::SmallVectorTemplateBase" = type { %"class.llvm::SmallVectorTemplateCommon" }
%"class.llvm::SmallVectorTemplateCommon" = type { %"class.llvm::SmallVectorBase" }
%"class.llvm::SmallVectorBase" = type { ptr, i32, i32 }
%"struct.llvm::SmallVectorStorage" = type { [64 x i8] }
%"class.llvm::SmallVector.5" = type { %"class.llvm::SmallVectorImpl", %"struct.llvm::SmallVectorStorage.6" }
%"struct.llvm::SmallVectorStorage.6" = type { [16 x i8] }
%"class.llvm::SmallVector.7" = type { %"class.llvm::SmallVectorImpl" }

@_ZN4llvm17MachineLoopInfoIDE = external constant ptr, align 8
@_ZN4llvm19MachineDominatorsIDE = external constant ptr, align 8

; Function Attrs: mustprogress nounwind uwtable
define linkonce_odr hidden noundef nonnull align 8 dereferenceable(161) ptr @_ZN4llvm13AnalysisUsage14addPreservedIDERc(ptr noundef nonnull align 8 dereferenceable(161) %0, ptr noundef nonnull align 1 dereferenceable(1) %1) #0 comdat align 2 {
  %3 = alloca ptr, align 8
  %4 = alloca ptr, align 8
  store ptr %0, ptr %3, align 8
  store ptr %1, ptr %4, align 8
  %5 = load ptr, ptr %3, align 8
  %6 = getelementptr inbounds nuw %"class.llvm::AnalysisUsage", ptr %5, i32 0, i32 2
  %7 = load ptr, ptr %4, align 8
  call void @_ZN4llvm13AnalysisUsage10pushUniqueERNS_15SmallVectorImplIPKvEES3_(ptr noundef nonnull align 8 dereferenceable(161) %5, ptr noundef nonnull align 8 dereferenceable(16) %6, ptr noundef %7)
  ret ptr %5
}

; Function Attrs: mustprogress nounwind uwtable
define internal void @_ZNK12_GLOBAL__N_115X86ExpandPseudo16getAnalysisUsageERN4llvm13AnalysisUsageE(ptr noundef nonnull align 8 dereferenceable(96) %0, ptr noundef nonnull align 8 dereferenceable(161) %1) unnamed_addr #0 align 2 {
  %3 = alloca ptr, align 8
  %4 = alloca ptr, align 8
  store ptr %0, ptr %3, align 8
  store ptr %1, ptr %4, align 8
  %5 = load ptr, ptr %3, align 8
  %6 = load ptr, ptr %4, align 8
  call void @_ZN4llvm13AnalysisUsage15setPreservesCFGEv(ptr noundef nonnull align 8 dereferenceable(161) %6)
  %7 = load ptr, ptr %4, align 8
  %8 = load ptr, ptr @_ZN4llvm17MachineLoopInfoIDE, align 8
  %9 = call noundef nonnull align 8 dereferenceable(161) ptr @_ZN4llvm13AnalysisUsage14addPreservedIDERc(ptr noundef nonnull align 8 dereferenceable(161) %7, ptr noundef nonnull align 1 dereferenceable(1) %8)
  %10 = load ptr, ptr %4, align 8
  %11 = load ptr, ptr @_ZN4llvm19MachineDominatorsIDE, align 8
  %12 = call noundef nonnull align 8 dereferenceable(161) ptr @_ZN4llvm13AnalysisUsage14addPreservedIDERc(ptr noundef nonnull align 8 dereferenceable(161) %10, ptr noundef nonnull align 1 dereferenceable(1) %11)
  %13 = load ptr, ptr %4, align 8
  call void @_ZNK4llvm19MachineFunctionPass16getAnalysisUsageERNS_13AnalysisUsageE(ptr noundef nonnull align 8 dereferenceable(56) %5, ptr noundef nonnull align 8 dereferenceable(161) %13)
  ret void
}