; Function Attrs: mustprogress nounwind uwtable
define internal void @_ZNK12_GLOBAL__N_115X86ExpandPseudo16getAnalysisUsageERN4llvm13AnalysisUsageE(ptr noundef nonnull align 8 dereferenceable(96) %0, ptr noundef nonnull align 8 dereferenceable(161) %1) unnamed_addr #0 align 2 {
  tail call void @_ZN4llvm13AnalysisUsage15setPreservesCFGEv(ptr noundef nonnull align 8 dereferenceable(161) %1) #15
  %3 = load ptr, ptr @_ZN4llvm17MachineLoopInfoIDE, align 8
  %4 = getelementptr inbounds nuw i8, ptr %1, i64 112
  tail call void @_ZN4llvm13AnalysisUsage10pushUniqueERNS_15SmallVectorImplIPKvEES3_(ptr noundef nonnull align 8 dereferenceable(161) %1, ptr noundef nonnull align 8 dereferenceable(16) %4, ptr noundef nonnull %3)
  %5 = load ptr, ptr @_ZN4llvm19MachineDominatorsIDE, align 8
  tail call void @_ZN4llvm13AnalysisUsage10pushUniqueERNS_15SmallVectorImplIPKvEES3_(ptr noundef nonnull align 8 dereferenceable(161) %1, ptr noundef nonnull align 8 dereferenceable(16) %4, ptr noundef nonnull %5)
  tail call void @_ZNK4llvm19MachineFunctionPass16getAnalysisUsageERNS_13AnalysisUsageE(ptr noundef nonnull align 8 dereferenceable(56) %0, ptr noundef nonnull align 8 dereferenceable(161) %1) #15
  ret void
}